ccopy_reg
_reconstructor
p0
(cnltk.classify.naivebayes
NaiveBayesClassifier
p1
c__builtin__
object
p2
Ntp3
Rp4
(dp5
S'_labels'
p6
(lp7
I1
aI0
asS'_feature_probdist'
p8
(dp9
(I1
S'ne_overlap'
p10
tp11
g0
(cnltk.probability
ELEProbDist
p12
g2
Ntp13
Rp14
(dp15
S'_gamma'
p16
F0.5
sS'_N'
p17
I905
sS'_freqdist'
p18
g0
(cnltk.probability
FreqDist
p19
c__builtin__
dict
p20
(dp21
I0
I191
sI1
I207
sI2
I212
sI3
I147
sI4
I90
sI5
I38
sI6
I10
sI7
I6
sI8
I2
sI10
I1
sI12
I1
stp22
Rp23
(dp24
g17
I905
sS'_max_cache'
p25
NsS'_item_cache'
p26
NsS'_Nr_cache'
p27
NsbsS'_bins'
p28
I12
sS'_divisor'
p29
F911.0
sbs(I1
S'word_overlap'
p30
tp31
g0
(g12
g2
Ntp32
Rp33
(dp34
g16
F0.5
sg17
I905
sg18
g0
(g19
g20
(dp35
I0
I187
sI1
I224
sI2
I198
sI3
I119
sI4
I75
sI5
I50
sI6
I21
sI7
I8
sI8
I10
sI9
I4
sI10
I2
sI11
I3
sI12
I3
sI14
I1
stp36
Rp37
(dp38
g17
I905
sg25
Nsg26
Nsg27
Nsbsg28
I15
sg29
F912.5
sbs(I0
g10
tp39
g0
(g12
g2
Ntp40
Rp41
(dp42
g16
F0.5
sg17
I862
sg18
g0
(g19
g20
(dp43
I0
I243
sI1
I262
sI2
I162
sI3
I111
sI4
I51
sI5
I21
sI6
I9
sI7
I3
stp44
Rp45
(dp46
g17
I862
sg25
Nsg26
Nsg27
Nsbsg28
I12
sg29
F868.0
sbs(I0
S'word_hyp_extra'
p47
tp48
g0
(g12
g2
Ntp49
Rp50
(dp51
g16
F0.5
sg17
I862
sg18
g0
(g19
g20
(dp52
I0
I46
sI1
I250
sI2
I198
sI3
I130
sI4
I88
sI5
I47
sI6
I27
sI7
I22
sI8
I11
sI9
I12
sI10
I7
sI11
I9
sI12
I8
sI13
I2
sI14
I2
sI15
I2
sI16
I1
stp53
Rp54
(dp55
g17
I862
sg25
Nsg26
Nsg27
Nsbsg28
I18
sg29
F871.0
sbs(I0
S'ne_hyp_extra'
p56
tp57
g0
(g12
g2
Ntp58
Rp59
(dp60
g16
F0.5
sg17
I862
sg18
g0
(g19
g20
(dp61
I0
I310
sI1
I374
sI2
I96
sI3
I47
sI4
I22
sI5
I4
sI6
I5
sI8
I3
sI9
I1
stp62
Rp63
(dp64
g17
I862
sg25
Nsg26
Nsg27
Nsbsg28
I10
sg29
F867.0
sbs(I0
g30
tp65
g0
(g12
g2
Ntp66
Rp67
(dp68
g16
F0.5
sg17
I862
sg18
g0
(g19
g20
(dp69
I0
I246
sI1
I230
sI2
I183
sI3
I90
sI4
I50
sI5
I26
sI6
I18
sI7
I9
sI8
I4
sI9
I3
sI10
I2
sI12
I1
stp70
Rp71
(dp72
g17
I862
sg25
Nsg26
Nsg27
Nsbsg28
I15
sg29
F869.5
sbs(I1
g56
tp73
g0
(g12
g2
Ntp74
Rp75
(dp76
g16
F0.5
sg17
I905
sg18
g0
(g19
g20
(dp77
I0
I431
sI1
I392
sI2
I51
sI3
I23
sI4
I7
sI5
I1
stp78
Rp79
(dp80
g17
I905
sg25
Nsg26
Nsg27
Nsbsg28
I10
sg29
F910.0
sbs(I1
g47
tp81
g0
(g12
g2
Ntp82
Rp83
(dp84
g16
F0.5
sg17
I905
sg18
g0
(g19
g20
(dp85
I0
I131
sI1
I309
sI2
I238
sI3
I117
sI4
I59
sI5
I26
sI6
I13
sI7
I7
sI8
I2
sI9
I2
sI10
I1
stp86
Rp87
(dp88
g17
I905
sg25
Nsg26
Nsg27
Nsbsg28
I18
sg29
F914.0
sbssS'_label_probdist'
p89
g0
(g12
g2
Ntp90
Rp91
(dp92
g16
F0.5
sg17
I1767
sg18
g0
(g19
g20
(dp93
I0
I862
sI1
I905
stp94
Rp95
(dp96
g17
I1767
sg25
Nsg26
(lp97
(I1
I905
tp98
a(I0
I862
tp99
asg27
Nsbsg28
I2
sg29
F1768.0
sbsb.